target datalayout = "e-m:e-p270:32:32-p271:32:32-p272:64:64-i64:64-i128:128-f80:128-n8:16:32:64-S128"
target triple = "x86_64-pc-linux-gnu"

@stderr = external global ptr, align 8
@.str.43 = private unnamed_addr constant [22 x i8] c"Invalid group id: %u\0A\00", align 1
@.str.44 = private unnamed_addr constant [21 x i8] c"Invalid user id: %u\0A\00", align 1

; Function Attrs: nounwind uwtable
define internal ptr @_convert_to_name(i32 noundef %0, i1 noundef zeroext %1) #0 {
  %3 = alloca i32, align 4
  %4 = alloca i8, align 1
  %5 = alloca ptr, align 8
  store i32 %0, ptr %3, align 4
  %6 = zext i1 %1 to i8
  store i8 %6, ptr %4, align 1
  call void @llvm.lifetime.start.p0(i64 8, ptr %5) #9
  store ptr null, ptr %5, align 8
  %7 = load i8, ptr %4, align 1, !range !11, !noundef !12
  %8 = trunc i8 %7 to i1
  br i1 %8, label %9, label %18

9:                                                ; preds = %2
  %10 = load i32, ptr %3, align 4
  %11 = call ptr @gid_to_string_or_null(i32 noundef %10)
  store ptr %11, ptr %5, align 8
  %12 = icmp ne ptr %11, null
  br i1 %12, label %17, label %13

13:                                               ; preds = %9
  %14 = load ptr, ptr @stderr, align 8
  %15 = load i32, ptr %3, align 4
  %16 = call i32 (ptr, ptr, ...) @fprintf(ptr noundef %14, ptr noundef @.str.43, i32 noundef %15) #9
  call void @exit(i32 noundef 1) #11
  unreachable

17:                                               ; preds = %9
  br label %27

18:                                               ; preds = %2
  %19 = load i32, ptr %3, align 4
  %20 = call ptr @uid_to_string_or_null(i32 noundef %19)
  store ptr %20, ptr %5, align 8
  %21 = icmp ne ptr %20, null
  br i1 %21, label %26, label %22

22:                                               ; preds = %18
  %23 = load ptr, ptr @stderr, align 8
  %24 = load i32, ptr %3, align 4
  %25 = call i32 (ptr, ptr, ...) @fprintf(ptr noundef %23, ptr noundef @.str.44, i32 noundef %24) #9
  call void @exit(i32 noundef 1) #11
  unreachable

26:                                               ; preds = %18
  br label %27

27:                                               ; preds = %26, %17
  %28 = load ptr, ptr %5, align 8
  call void @llvm.lifetime.end.p0(i64 8, ptr %5) #9
  ret ptr %28
}

; Function Attrs: nounwind uwtable
define internal i32 @_addto_name_char_list_internal(ptr noundef %0, ptr noundef %1, ptr noundef %2) #0 {
  %4 = alloca i32, align 4
  %5 = alloca ptr, align 8
  %6 = alloca ptr, align 8
  %7 = alloca ptr, align 8
  %8 = alloca ptr, align 8
  %9 = alloca i8, align 1
  %10 = alloca i32, align 4
  %11 = alloca i32, align 4
  store ptr %0, ptr %5, align 8
  store ptr %1, ptr %6, align 8
  store ptr %2, ptr %7, align 8
  call void @llvm.lifetime.start.p0(i64 8, ptr %8) #9
  store ptr null, ptr %8, align 8
  call void @llvm.lifetime.start.p0(i64 1, ptr %9) #9
  %12 = load ptr, ptr %7, align 8
  %13 = load i8, ptr %12, align 1, !range !11, !noundef !12
  %14 = trunc i8 %13 to i1
  %15 = zext i1 %14 to i8
  store i8 %15, ptr %9, align 1
  %16 = call ptr @__ctype_b_loc() #12
  %17 = load ptr, ptr %16, align 8
  %18 = load ptr, ptr %6, align 8
  %19 = load i8, ptr %18, align 1
  %20 = sext i8 %19 to i32
  %21 = sext i32 %20 to i64
  %22 = getelementptr inbounds i16, ptr %17, i64 %21
  %23 = load i16, ptr %22, align 2
  %24 = zext i16 %23 to i32
  %25 = and i32 %24, 2048
  %26 = icmp ne i32 %25, 0
  br i1 %26, label %27, label %35

27:                                               ; preds = %3
  call void @llvm.lifetime.start.p0(i64 4, ptr %10) #9
  %28 = load ptr, ptr %6, align 8
  %29 = call i64 @strtoul(ptr noundef %28, ptr noundef null, i32 noundef 10) #9
  %30 = trunc i64 %29 to i32
  store i32 %30, ptr %10, align 4
  %31 = load i32, ptr %10, align 4
  %32 = load i8, ptr %9, align 1, !range !11, !noundef !12
  %33 = trunc i8 %32 to i1
  %34 = call ptr @_convert_to_name(i32 noundef %31, i1 noundef zeroext %33)
  store ptr %34, ptr %8, align 8
  call void @llvm.lifetime.end.p0(i64 4, ptr %10) #9
  br label %38

35:                                               ; preds = %3
  %36 = load ptr, ptr %6, align 8
  %37 = call ptr @xstrdup(ptr noundef %36)
  store ptr %37, ptr %8, align 8
  br label %38

38:                                               ; preds = %35, %27
  %39 = load ptr, ptr %5, align 8
  %40 = load ptr, ptr %8, align 8
  %41 = call ptr @list_find_first(ptr noundef %39, ptr noundef @slurm_find_char_in_list, ptr noundef %40)
  %42 = icmp ne ptr %41, null
  br i1 %42, label %46, label %43

43:                                               ; preds = %38
  %44 = load ptr, ptr %5, align 8
  %45 = load ptr, ptr %8, align 8
  call void @list_append(ptr noundef %44, ptr noundef %45)
  store i32 1, ptr %4, align 4
  store i32 1, ptr %11, align 4
  br label %47

46:                                               ; preds = %38
  call void @slurm_xfree(ptr noundef %8)
  store i32 0, ptr %4, align 4
  store i32 1, ptr %11, align 4
  br label %47

47:                                               ; preds = %46, %43
  call void @llvm.lifetime.end.p0(i64 1, ptr %9) #9
  call void @llvm.lifetime.end.p0(i64 8, ptr %8) #9
  %48 = load i32, ptr %4, align 4
  ret i32 %48
}