; Function Attrs: nounwind uwtable
define internal range(i32 0, 2) i32 @_addto_name_char_list_internal(ptr noundef %0, ptr noundef %1, ptr noundef readonly captures(none) %2) #10 {
  %4 = alloca ptr, align 8
  call void @llvm.lifetime.start.p0(i64 8, ptr nonnull %4) #14
  %5 = tail call ptr @__ctype_b_loc() #19
  %6 = load ptr, ptr %5, align 8
  %7 = load i8, ptr %1, align 1
  %8 = sext i8 %7 to i64
  %9 = getelementptr inbounds i16, ptr %6, i64 %8
  %10 = load i16, ptr %9, align 2
  %11 = and i16 %10, 2048
  %.not = icmp eq i16 %11, 0
  br i1 %.not, label %27, label %12

12:                                               ; preds = %3
  %13 = load i8, ptr %2, align 1, !range !15, !noundef !16
  %14 = trunc nuw i8 %13 to i1
  %15 = tail call i64 @strtoul(ptr noundef nonnull captures(none) %1, ptr noundef null, i32 noundef 10) #14
  %16 = trunc i64 %15 to i32
  br i1 %14, label %17, label %22

17:                                               ; preds = %12
  %18 = tail call ptr @gid_to_string_or_null(i32 noundef %16) #14
  %.not7.i = icmp eq ptr %18, null
  br i1 %.not7.i, label %19, label %_convert_to_name.exit

19:                                               ; preds = %17
  %20 = load ptr, ptr @stderr, align 8
  %21 = tail call i32 (ptr, ptr, ...) @fprintf(ptr noundef %20, ptr noundef nonnull @.str.43, i32 noundef %16) #18
  tail call void @exit(i32 noundef 1) #17
  unreachable

22:                                               ; preds = %12
  %23 = tail call ptr @uid_to_string_or_null(i32 noundef %16) #14
  %.not.i = icmp eq ptr %23, null
  br i1 %.not.i, label %24, label %_convert_to_name.exit

24:                                               ; preds = %22
  %25 = load ptr, ptr @stderr, align 8
  %26 = tail call i32 (ptr, ptr, ...) @fprintf(ptr noundef %25, ptr noundef nonnull @.str.44, i32 noundef %16) #18
  tail call void @exit(i32 noundef 1) #17
  unreachable

27:                                               ; preds = %3
  %28 = tail call ptr @xstrdup(ptr noundef nonnull %1) #14
  br label %_convert_to_name.exit

_convert_to_name.exit:                            ; preds = %22, %17, %27
  %29 = phi ptr [ %28, %27 ], [ %18, %17 ], [ %23, %22 ]
  store ptr %29, ptr %4, align 8
  %30 = tail call ptr @list_find_first(ptr noundef %0, ptr noundef nonnull @slurm_find_char_in_list, ptr noundef %29) #14
  %.not8 = icmp eq ptr %30, null
  br i1 %.not8, label %31, label %32

31:                                               ; preds = %_convert_to_name.exit
  tail call void @list_append(ptr noundef %0, ptr noundef %29) #14
  br label %33

32:                                               ; preds = %_convert_to_name.exit
  call void @slurm_xfree(ptr noundef nonnull %4) #14
  br label %33

33:                                               ; preds = %32, %31
  %.0 = phi i32 [ 0, %32 ], [ 1, %31 ]
  call void @llvm.lifetime.end.p0(i64 8, ptr nonnull %4) #14
  ret i32 %.0
}